target datalayout = "e-m:e-p270:32:32-p271:32:32-p272:64:64-i64:64-i128:128-f80:128-n8:16:32:64-S128"
target triple = "x86_64-pc-linux-gnu"

@hf_mbim_ms_modem_config_config_status = internal global i32 0, align 4
@ett_mbim_pair_list = internal global i32 0, align 4
@.str.2579 = private unnamed_addr constant [13 x i8] c"Unnamed IE's\00", align 1
@.str.2619 = private unnamed_addr constant [12 x i8] c"Config Name\00", align 1

; Function Attrs: nounwind uwtable
define internal void @mbim_dissect_ms_modem_config_info(ptr noundef %0, ptr noundef %1, ptr noundef %2, i32 noundef %3, i32 noundef %4) #0 {
  %6 = alloca ptr, align 8
  %7 = alloca ptr, align 8
  %8 = alloca ptr, align 8
  %9 = alloca i32, align 4
  %10 = alloca i32, align 4
  %11 = alloca ptr, align 8
  %12 = alloca ptr, align 8
  %13 = alloca i32, align 4
  store ptr %0, ptr %6, align 8
  store ptr %1, ptr %7, align 8
  store ptr %2, ptr %8, align 8
  store i32 %3, ptr %9, align 4
  store i32 %4, ptr %10, align 4
  %14 = load i32, ptr %9, align 4
  store i32 %14, ptr %13, align 4
  %15 = load ptr, ptr %8, align 8
  %16 = load i32, ptr @hf_mbim_ms_modem_config_config_status, align 4
  %17 = load ptr, ptr %6, align 8
  %18 = load i32, ptr %9, align 4
  %19 = call ptr @proto_tree_add_item(ptr noundef %15, i32 noundef %16, ptr noundef %17, i32 noundef %18, i32 noundef 4, i32 noundef -2147483648)
  %20 = load i32, ptr %9, align 4
  %21 = add i32 %20, 4
  store i32 %21, ptr %9, align 4
  %22 = load ptr, ptr %8, align 8
  %23 = load ptr, ptr %6, align 8
  %24 = load i32, ptr %9, align 4
  %25 = load i32, ptr @ett_mbim_pair_list, align 4
  %26 = call ptr (ptr, ptr, i32, i32, i32, ptr, ptr, ...) @proto_tree_add_subtree_format(ptr noundef %22, ptr noundef %23, i32 noundef %24, i32 noundef 0, i32 noundef %25, ptr noundef null, ptr noundef @.str.2619)
  store ptr %26, ptr %11, align 8
  %27 = load ptr, ptr %6, align 8
  %28 = load ptr, ptr %7, align 8
  %29 = load ptr, ptr %11, align 8
  call void @mbim_dissect_tlv_ie(ptr noundef %27, ptr noundef %28, ptr noundef %29, ptr noundef %9)
  br label %30

30:                                               ; preds = %36, %5
  %31 = load i32, ptr %9, align 4
  %32 = load i32, ptr %13, align 4
  %33 = sub i32 %31, %32
  %34 = load i32, ptr %10, align 4
  %35 = icmp ult i32 %33, %34
  br i1 %35, label %36, label %45

36:                                               ; preds = %30
  %37 = load ptr, ptr %8, align 8
  %38 = load ptr, ptr %6, align 8
  %39 = load i32, ptr %9, align 4
  %40 = load i32, ptr @ett_mbim_pair_list, align 4
  %41 = call ptr (ptr, ptr, i32, i32, i32, ptr, ptr, ...) @proto_tree_add_subtree_format(ptr noundef %37, ptr noundef %38, i32 noundef %39, i32 noundef 0, i32 noundef %40, ptr noundef null, ptr noundef @.str.2579)
  store ptr %41, ptr %12, align 8
  %42 = load ptr, ptr %6, align 8
  %43 = load ptr, ptr %7, align 8
  %44 = load ptr, ptr %12, align 8
  call void @mbim_dissect_tlv_ie(ptr noundef %42, ptr noundef %43, ptr noundef %44, ptr noundef %9)
  br label %30, !llvm.loop !60

45:                                               ; preds = %30
  ret void
}