; Function Attrs: nounwind uwtable
define internal fastcc void @mbim_dissect_ms_modem_config_info(ptr noundef %0, ptr noundef %1, ptr noundef %2, i32 noundef %3, i32 noundef %4) unnamed_addr #0 {
  %6 = alloca i32, align 4
  %7 = load i32, ptr @hf_mbim_ms_modem_config_config_status, align 4
  %8 = tail call ptr @proto_tree_add_item(ptr noundef %2, i32 noundef %7, ptr noundef %0, i32 noundef %3, i32 noundef 4, i32 noundef -2147483648) #10
  %9 = add i32 %3, 4
  store i32 %9, ptr %6, align 4
  %10 = load i32, ptr @ett_mbim_pair_list, align 4
  %11 = tail call ptr (ptr, ptr, i32, i32, i32, ptr, ptr, ...) @proto_tree_add_subtree_format(ptr noundef %2, ptr noundef %0, i32 noundef %9, i32 noundef 0, i32 noundef %10, ptr noundef null, ptr noundef nonnull @.str.2619) #10
  call fastcc void @mbim_dissect_tlv_ie(ptr noundef %0, ptr noundef %1, ptr noundef %11, ptr noundef %6)
  %12 = load i32, ptr %6, align 4
  %13 = sub i32 %12, %3
  %14 = icmp ult i32 %13, %4
  br i1 %14, label %.lr.ph, label %._crit_edge

.lr.ph:                                           ; preds = %5, %.lr.ph
  %15 = phi i32 [ %18, %.lr.ph ], [ %12, %5 ]
  %16 = load i32, ptr @ett_mbim_pair_list, align 4
  %17 = tail call ptr (ptr, ptr, i32, i32, i32, ptr, ptr, ...) @proto_tree_add_subtree_format(ptr noundef %2, ptr noundef %0, i32 noundef %15, i32 noundef 0, i32 noundef %16, ptr noundef null, ptr noundef nonnull @.str.2579) #10
  call fastcc void @mbim_dissect_tlv_ie(ptr noundef %0, ptr noundef %1, ptr noundef %17, ptr noundef %6)
  %18 = load i32, ptr %6, align 4
  %19 = sub i32 %18, %3
  %20 = icmp ult i32 %19, %4
  br i1 %20, label %.lr.ph, label %._crit_edge, !llvm.loop !65

._crit_edge:                                      ; preds = %.lr.ph, %5
  ret void
}